target datalayout = "e-m:e-p270:32:32-p271:32:32-p272:64:64-i64:64-i128:128-f80:128-n8:16:32:64-S128"
target triple = "x86_64-pc-linux-gnu"

%"class.std::vector" = type { %"struct.std::_Vector_base" }
%"struct.std::_Vector_base" = type { %"struct.std::_Vector_base<unsigned char, std::allocator<unsigned char>>::_Vector_impl" }
%"struct.std::_Vector_base<unsigned char, std::allocator<unsigned char>>::_Vector_impl" = type { %"struct.std::_Vector_base<unsigned char, std::allocator<unsigned char>>::_Vector_impl_data" }
%"struct.std::_Vector_base<unsigned char, std::allocator<unsigned char>>::_Vector_impl_data" = type { ptr, ptr, ptr }
%class.anon.49 = type { ptr }
%class.anon.50 = type { i8 }

@_ZZ13GetRgb8ValuesvE11_rgb8Values = internal global %"class.std::vector" zeroinitializer, align 8
@_ZSt15__once_callable = external thread_local global ptr, align 8

; Function Attrs: mustprogress nounwind uwtable
define linkonce_odr dso_local noundef nonnull align 1 dereferenceable(1) ptr @_ZNSt6vectorIhSaIhEEixEm(ptr noundef nonnull align 8 dereferenceable(24) %0, i64 noundef %1) #5 comdat align 2 {
  %3 = alloca ptr, align 8
  %4 = alloca i64, align 8
  store ptr %0, ptr %3, align 8
  store i64 %1, ptr %4, align 8
  %5 = load ptr, ptr %3, align 8
  %6 = getelementptr inbounds nuw %"struct.std::_Vector_base", ptr %5, i32 0, i32 0
  %7 = getelementptr inbounds nuw %"struct.std::_Vector_base<unsigned char, std::allocator<unsigned char>>::_Vector_impl_data", ptr %6, i32 0, i32 0
  %8 = load ptr, ptr %7, align 8
  %9 = load i64, ptr %4, align 8
  %10 = getelementptr inbounds i8, ptr %8, i64 %9
  ret ptr %10
}

; Function Attrs: mustprogress nounwind uwtable
define internal void @"_ZZ13GetRgb8ValuesvENK3$_0clEv"(ptr noundef nonnull align 1 dereferenceable(1) %0) #5 align 2 {
  %2 = alloca ptr, align 8
  %3 = alloca i32, align 4
  %4 = alloca i32, align 4
  %5 = alloca i32, align 4
  store ptr %0, ptr %2, align 8
  store i32 0, ptr %3, align 4
  br label %6

6:                                                ; preds = %46, %1
  %7 = load i32, ptr %3, align 4
  %8 = icmp slt i32 %7, 256
  br i1 %8, label %9, label %49

9:                                                ; preds = %6
  store i32 0, ptr %4, align 4
  br label %10

10:                                               ; preds = %42, %9
  %11 = load i32, ptr %4, align 4
  %12 = icmp slt i32 %11, 256
  br i1 %12, label %13, label %45

13:                                               ; preds = %10
  %14 = load i32, ptr %3, align 4
  %15 = mul nsw i32 %14, 256
  %16 = load i32, ptr %4, align 4
  %17 = add nsw i32 %15, %16
  %18 = mul nsw i32 3, %17
  store i32 %18, ptr %5, align 4
  %19 = load i32, ptr %4, align 4
  %20 = and i32 %19, 255
  %21 = trunc i32 %20 to i8
  %22 = load i32, ptr %5, align 4
  %23 = add nsw i32 %22, 0
  %24 = sext i32 %23 to i64
  %25 = call noundef nonnull align 1 dereferenceable(1) ptr @_ZNSt6vectorIhSaIhEEixEm(ptr noundef nonnull align 8 dereferenceable(24) @_ZZ13GetRgb8ValuesvE11_rgb8Values, i64 noundef %24) #3
  store i8 %21, ptr %25, align 1
  %26 = load i32, ptr %3, align 4
  %27 = and i32 %26, 255
  %28 = trunc i32 %27 to i8
  %29 = load i32, ptr %5, align 4
  %30 = add nsw i32 %29, 1
  %31 = sext i32 %30 to i64
  %32 = call noundef nonnull align 1 dereferenceable(1) ptr @_ZNSt6vectorIhSaIhEEixEm(ptr noundef nonnull align 8 dereferenceable(24) @_ZZ13GetRgb8ValuesvE11_rgb8Values, i64 noundef %31) #3
  store i8 %28, ptr %32, align 1
  %33 = load i32, ptr %4, align 4
  %34 = load i32, ptr %3, align 4
  %35 = add nsw i32 %33, %34
  %36 = and i32 %35, 255
  %37 = trunc i32 %36 to i8
  %38 = load i32, ptr %5, align 4
  %39 = add nsw i32 %38, 2
  %40 = sext i32 %39 to i64
  %41 = call noundef nonnull align 1 dereferenceable(1) ptr @_ZNSt6vectorIhSaIhEEixEm(ptr noundef nonnull align 8 dereferenceable(24) @_ZZ13GetRgb8ValuesvE11_rgb8Values, i64 noundef %40) #3
  store i8 %37, ptr %41, align 1
  br label %42

42:                                               ; preds = %13
  %43 = load i32, ptr %4, align 4
  %44 = add nsw i32 %43, 1
  store i32 %44, ptr %4, align 4
  br label %10, !llvm.loop !15

45:                                               ; preds = %10
  br label %46

46:                                               ; preds = %45
  %47 = load i32, ptr %3, align 4
  %48 = add nsw i32 %47, 1
  store i32 %48, ptr %3, align 4
  br label %6, !llvm.loop !16

49:                                               ; preds = %6
  ret void
}

; Function Attrs: mustprogress uwtable
define internal void @"_ZSt13__invoke_implIvZ13GetRgb8ValuesvE3$_0JEET_St14__invoke_otherOT0_DpOT1_"(ptr noundef nonnull align 1 dereferenceable(1) %0) #4 {
  %2 = alloca ptr, align 8
  store ptr %0, ptr %2, align 8
  %3 = load ptr, ptr %2, align 8
  call void @"_ZZ13GetRgb8ValuesvENK3$_0clEv"(ptr noundef nonnull align 1 dereferenceable(1) %3)
  ret void
}

; Function Attrs: mustprogress uwtable
define internal void @"_ZSt8__invokeIZ13GetRgb8ValuesvE3$_0JEENSt15__invoke_resultIT_JDpT0_EE4typeEOS2_DpOS3_"(ptr noundef nonnull align 1 dereferenceable(1) %0) #4 {
  %2 = alloca ptr, align 8
  store ptr %0, ptr %2, align 8
  %3 = load ptr, ptr %2, align 8
  call void @"_ZSt13__invoke_implIvZ13GetRgb8ValuesvE3$_0JEET_St14__invoke_otherOT0_DpOT1_"(ptr noundef nonnull align 1 dereferenceable(1) %3)
  ret void
}

; Function Attrs: mustprogress uwtable
define internal void @"_ZZSt9call_onceIZ13GetRgb8ValuesvE3$_0JEEvRSt9once_flagOT_DpOT0_ENKUlvE_clEv"(ptr noundef nonnull align 8 dereferenceable(8) %0) #4 align 2 {
  %2 = alloca ptr, align 8
  store ptr %0, ptr %2, align 8
  %3 = load ptr, ptr %2, align 8
  %4 = getelementptr inbounds nuw %class.anon.49, ptr %3, i32 0, i32 0
  %5 = load ptr, ptr %4, align 8
  call void @"_ZSt8__invokeIZ13GetRgb8ValuesvE3$_0JEENSt15__invoke_resultIT_JDpT0_EE4typeEOS2_DpOS3_"(ptr noundef nonnull align 1 dereferenceable(1) %5)
  ret void
}

; Function Attrs: mustprogress uwtable
define internal void @"_ZZNSt9once_flag18_Prepare_executionC1IZSt9call_onceIZ13GetRgb8ValuesvE3$_0JEEvRS_OT_DpOT0_EUlvE_EERS5_ENKUlvE_clEv"(ptr noundef nonnull align 1 dereferenceable(1) %0) #4 align 2 {
  %2 = alloca ptr, align 8
  store ptr %0, ptr %2, align 8
  %3 = call align 8 ptr @llvm.threadlocal.address.p0(ptr align 8 @_ZSt15__once_callable)
  %4 = load ptr, ptr %3, align 8
  call void @"_ZZSt9call_onceIZ13GetRgb8ValuesvE3$_0JEEvRSt9once_flagOT_DpOT0_ENKUlvE_clEv"(ptr noundef nonnull align 8 dereferenceable(8) %4)
  ret void
}

; Function Attrs: mustprogress uwtable
define internal void @"_ZZNSt9once_flag18_Prepare_executionC1IZSt9call_onceIZ13GetRgb8ValuesvE3$_0JEEvRS_OT_DpOT0_EUlvE_EERS5_ENUlvE_8__invokeEv"() #4 align 2 {
  %1 = alloca %class.anon.50, align 1
  call void @"_ZZNSt9once_flag18_Prepare_executionC1IZSt9call_onceIZ13GetRgb8ValuesvE3$_0JEEvRS_OT_DpOT0_EUlvE_EERS5_ENKUlvE_clEv"(ptr noundef nonnull align 1 dereferenceable(1) %1)
  ret void
}