; Function Attrs: mustprogress nofree norecurse nosync nounwind memory(readwrite, argmem: write, inaccessiblemem: none) uwtable
define internal void @"_ZZNSt9once_flag18_Prepare_executionC1IZSt9call_onceIZ13GetRgb8ValuesvE3$_0JEEvRS_OT_DpOT0_EUlvE_EERS5_ENUlvE_8__invokeEv"() #14 align 2 {
  br label %.preheader.i.i.i.i.i

.preheader.i.i.i.i.i:                             ; preds = %17, %0
  %indvars.iv4.i.i.i.i.i = phi i64 [ 0, %0 ], [ %indvars.iv.next5.i.i.i.i.i, %17 ]
  %1 = shl nuw nsw i64 %indvars.iv4.i.i.i.i.i, 8
  %2 = trunc i64 %indvars.iv4.i.i.i.i.i to i8
  br label %3

3:                                                ; preds = %3, %.preheader.i.i.i.i.i
  %indvars.iv.i.i.i.i.i = phi i64 [ 0, %.preheader.i.i.i.i.i ], [ %indvars.iv.next.i.i.i.i.i, %3 ]
  %4 = add nuw nsw i64 %indvars.iv.i.i.i.i.i, %1
  %5 = mul nuw nsw i64 %4, 3
  %6 = trunc i64 %indvars.iv.i.i.i.i.i to i8
  %7 = load ptr, ptr @_ZZ13GetRgb8ValuesvE11_rgb8Values, align 8
  %8 = getelementptr inbounds nuw i8, ptr %7, i64 %5
  store i8 %6, ptr %8, align 1
  %9 = load ptr, ptr @_ZZ13GetRgb8ValuesvE11_rgb8Values, align 8
  %10 = getelementptr inbounds nuw i8, ptr %9, i64 %5
  %11 = getelementptr inbounds nuw i8, ptr %10, i64 1
  store i8 %2, ptr %11, align 1
  %12 = add nuw nsw i64 %indvars.iv.i.i.i.i.i, %indvars.iv4.i.i.i.i.i
  %13 = trunc i64 %12 to i8
  %14 = load ptr, ptr @_ZZ13GetRgb8ValuesvE11_rgb8Values, align 8
  %15 = getelementptr inbounds nuw i8, ptr %14, i64 %5
  %16 = getelementptr inbounds nuw i8, ptr %15, i64 2
  store i8 %13, ptr %16, align 1
  %indvars.iv.next.i.i.i.i.i = add nuw nsw i64 %indvars.iv.i.i.i.i.i, 1
  %exitcond.not.i.i.i.i.i = icmp eq i64 %indvars.iv.next.i.i.i.i.i, 256
  br i1 %exitcond.not.i.i.i.i.i, label %17, label %3, !llvm.loop !17

17:                                               ; preds = %3
  %indvars.iv.next5.i.i.i.i.i = add nuw nsw i64 %indvars.iv4.i.i.i.i.i, 1
  %exitcond7.not.i.i.i.i.i = icmp eq i64 %indvars.iv.next5.i.i.i.i.i, 256
  br i1 %exitcond7.not.i.i.i.i.i, label %"_ZZNSt9once_flag18_Prepare_executionC1IZSt9call_onceIZ13GetRgb8ValuesvE3$_0JEEvRS_OT_DpOT0_EUlvE_EERS5_ENKUlvE_clEv.exit", label %.preheader.i.i.i.i.i, !llvm.loop !18

"_ZZNSt9once_flag18_Prepare_executionC1IZSt9call_onceIZ13GetRgb8ValuesvE3$_0JEEvRS_OT_DpOT0_EUlvE_EERS5_ENKUlvE_clEv.exit": ; preds = %17
  ret void
}